target datalayout = "e-m:e-p270:32:32-p271:32:32-p272:64:64-i64:64-i128:128-f80:128-n8:16:32:64-S128"
target triple = "x86_64-pc-linux-gnu"

%"class.casadi::Sparsity" = type { %"class.casadi::SharedObject" }
%"class.casadi::SharedObject" = type { %"class.casadi::GenericShared" }
%"class.casadi::GenericShared" = type { ptr }

; Function Attrs: mustprogress nounwind uwtable
define linkonce_odr hidden void @_ZN6casadi13GenericSharedINS_12SharedObjectENS_20SharedObjectInternalEED2Ev(ptr noundef nonnull align 8 dereferenceable(8) %0) unnamed_addr #6 comdat align 2 personality ptr @__gxx_personality_v0 {
  %2 = alloca ptr, align 8
  store ptr %0, ptr %2, align 8, !tbaa !16
  %3 = load ptr, ptr %2, align 8
  invoke void @_ZN6casadi13GenericSharedINS_12SharedObjectENS_20SharedObjectInternalEE10count_downEv(ptr noundef nonnull align 8 dereferenceable(8) %3)
          to label %4 unwind label %5

4:                                                ; preds = %1
  ret void

5:                                                ; preds = %1
  %6 = landingpad { ptr, i32 }
          catch ptr null
  %7 = extractvalue { ptr, i32 } %6, 0
  call void @__clang_call_terminate(ptr %7) #16
  unreachable
}

; Function Attrs: mustprogress uwtable
define linkonce_odr hidden void @_ZN6casadi8Sparsity6scalarEb(ptr dead_on_unwind noalias writable sret(%"class.casadi::Sparsity") align 8 %0, i1 noundef zeroext %1) #4 comdat align 2 {
  %3 = alloca ptr, align 8
  %4 = alloca i8, align 1
  store ptr %0, ptr %3, align 8
  %5 = zext i1 %1 to i8
  store i8 %5, ptr %4, align 1, !tbaa !12
  %6 = load i8, ptr %4, align 1, !tbaa !12, !range !14, !noundef !15
  %7 = trunc i8 %6 to i1
  br i1 %7, label %8, label %9

8:                                                ; preds = %2
  call void @_ZN6casadi8Sparsity5denseExx(ptr dead_on_unwind writable sret(%"class.casadi::Sparsity") align 8 %0, i64 noundef 1, i64 noundef 1)
  br label %10

9:                                                ; preds = %2
  call void @_ZN6casadi8SparsityC1Exx(ptr noundef nonnull align 8 dereferenceable(8) %0, i64 noundef 1, i64 noundef 1)
  br label %10

10:                                               ; preds = %9, %8
  ret void
}

; Function Attrs: mustprogress uwtable
define void @_ZN6casadi4MMinC2ERKNS_2MXE(ptr noundef nonnull align 8 dereferenceable(64) %0, ptr noundef nonnull align 8 dereferenceable(8) %1) unnamed_addr #4 align 2 personality ptr @__gxx_personality_v0 {
  %3 = alloca ptr, align 8
  %4 = alloca ptr, align 8
  %5 = alloca ptr, align 8
  %6 = alloca i32, align 4
  %7 = alloca %"class.casadi::Sparsity", align 8
  store ptr %0, ptr %3, align 8, !tbaa !3
  store ptr %1, ptr %4, align 8, !tbaa !8
  %8 = load ptr, ptr %3, align 8
  call void @_ZN6casadi6MXNodeC2Ev(ptr noundef nonnull align 8 dereferenceable(64) %8)
  store ptr getelementptr inbounds inrange(-16, 888) ({ [113 x ptr] }, ptr @_ZTVN6casadi4MMinE, i32 0, i32 0, i32 2), ptr %8, align 8, !tbaa !10
  %9 = load ptr, ptr %4, align 8, !tbaa !8
  invoke void @_ZN6casadi6MXNode7set_depERKNS_2MXE(ptr noundef nonnull align 8 dereferenceable(64) %8, ptr noundef nonnull align 8 dereferenceable(8) %9)
          to label %10 unwind label %13

10:                                               ; preds = %2
  call void @llvm.lifetime.start.p0(i64 8, ptr %7) #3
  invoke void @_ZN6casadi8Sparsity6scalarEb(ptr dead_on_unwind writable sret(%"class.casadi::Sparsity") align 8 %7, i1 noundef zeroext true)
          to label %11 unwind label %17

11:                                               ; preds = %10
  invoke void @_ZN6casadi6MXNode12set_sparsityERKNS_8SparsityE(ptr noundef nonnull align 8 dereferenceable(64) %8, ptr noundef nonnull align 8 dereferenceable(8) %7)
          to label %12 unwind label %21

12:                                               ; preds = %11
  call void @_ZN6casadi13GenericSharedINS_12SharedObjectENS_20SharedObjectInternalEED2Ev(ptr noundef nonnull align 8 dereferenceable(8) %7) #3
  call void @llvm.lifetime.end.p0(i64 8, ptr %7) #3
  ret void

13:                                               ; preds = %2
  %14 = landingpad { ptr, i32 }
          cleanup
  %15 = extractvalue { ptr, i32 } %14, 0
  store ptr %15, ptr %5, align 8
  %16 = extractvalue { ptr, i32 } %14, 1
  store i32 %16, ptr %6, align 4
  br label %26

17:                                               ; preds = %10
  %18 = landingpad { ptr, i32 }
          cleanup
  %19 = extractvalue { ptr, i32 } %18, 0
  store ptr %19, ptr %5, align 8
  %20 = extractvalue { ptr, i32 } %18, 1
  store i32 %20, ptr %6, align 4
  br label %25

21:                                               ; preds = %11
  %22 = landingpad { ptr, i32 }
          cleanup
  %23 = extractvalue { ptr, i32 } %22, 0
  store ptr %23, ptr %5, align 8
  %24 = extractvalue { ptr, i32 } %22, 1
  store i32 %24, ptr %6, align 4
  call void @_ZN6casadi13GenericSharedINS_12SharedObjectENS_20SharedObjectInternalEED2Ev(ptr noundef nonnull align 8 dereferenceable(8) %7) #3
  br label %25

25:                                               ; preds = %21, %17
  call void @llvm.lifetime.end.p0(i64 8, ptr %7) #3
  br label %26

26:                                               ; preds = %25, %13
  call void @_ZN6casadi6MXNodeD2Ev(ptr noundef nonnull align 8 dereferenceable(64) %8) #3
  br label %27

27:                                               ; preds = %26
  %28 = load ptr, ptr %5, align 8
  %29 = load i32, ptr %6, align 4
  %30 = insertvalue { ptr, i32 } poison, ptr %28, 0
  %31 = insertvalue { ptr, i32 } %30, i32 %29, 1
  resume { ptr, i32 } %31
}